target datalayout = "e-m:e-p270:32:32-p271:32:32-p272:64:64-i64:64-i128:128-f80:128-n8:16:32:64-S128"
target triple = "x86_64-pc-linux-gnu"

@_ZTIN7datalog13relation_baseE = external constant ptr
@_ZTIN7datalog14sieve_relationE = hidden constant { ptr, ptr, ptr } { ptr getelementptr inbounds (ptr, ptr @_ZTVN10__cxxabiv120__si_class_type_infoE, i64 2), ptr @_ZTSN7datalog14sieve_relationE, ptr @_ZTIN7datalog13relation_baseE }, align 8

; Function Attrs: mustprogress uwtable
define hidden noundef nonnull align 8 dereferenceable(72) ptr @_ZN7datalog21sieve_relation_plugin3getERKNS_13relation_baseE(ptr noundef nonnull align 8 dereferenceable(28) %0) #4 align 2 {
  %2 = alloca ptr, align 8
  store ptr %0, ptr %2, align 8, !tbaa !14
  %3 = load ptr, ptr %2, align 8, !tbaa !14
  %4 = call ptr @__dynamic_cast(ptr %3, ptr @_ZTIN7datalog13relation_baseE, ptr @_ZTIN7datalog14sieve_relationE, i64 0) #3
  %5 = icmp eq ptr %4, null
  br i1 %5, label %6, label %7

6:                                                ; preds = %1
  call void @__cxa_bad_cast() #22
  unreachable

7:                                                ; preds = %1
  ret ptr %4
}